target datalayout = "e-m:e-p270:32:32-p271:32:32-p272:64:64-i64:64-i128:128-f80:128-n8:16:32:64-S128"
target triple = "x86_64-pc-linux-gnu"

%struct._zend_executor_globals = type { %struct._zval_struct, %struct._zval_struct, [32 x ptr], ptr, ptr, %struct._zend_array, %struct._zend_array, ptr, i32, i32, ptr, ptr, ptr, ptr, ptr, ptr, i64, ptr, ptr, i32, i32, i64, i32, i32, i32, i8, i8, %struct.zend_atomic_bool_s, %struct.zend_atomic_bool_s, ptr, i64, ptr, ptr, %struct._zend_array, %struct._zend_array, i32, i8, %struct._zval_struct, %struct._zval_struct, %struct._zend_stack, %struct._zend_stack, %struct._zend_stack, ptr, i32, i32, i64, ptr, ptr, ptr, %struct._zend_objects_store, ptr, ptr, ptr, [3 x %struct._zend_op], ptr, i8, i8, i64, i32, i32, ptr, [16 x %struct._HashTableIterator], ptr, %union._zend_function, %struct._zend_op, %struct._zend_array, i64, %struct.zend_get_gc_buffer, ptr, ptr, ptr, i64, i8, i32, ptr, ptr, i64, %struct._zend_call_stack, i64, i64, [6 x ptr] }
%struct.zend_atomic_bool_s = type { i8 }
%struct._zval_struct = type { %union._zend_value, %union.anon, %union.anon.2 }
%union._zend_value = type { i64 }
%union.anon = type { i32 }
%union.anon.2 = type { i32 }
%struct._zend_stack = type { i32, i32, i32, ptr }
%struct._zend_objects_store = type { ptr, i32, i32, i32 }
%struct._HashTableIterator = type { ptr, i32, i32 }
%union._zend_function = type { %struct._zend_op_array }
%struct._zend_op_array = type { i8, [3 x i8], i32, ptr, ptr, ptr, i32, i32, ptr, ptr, ptr, ptr, i32, i32, i32, i32, ptr, ptr, ptr, ptr, ptr, i32, i32, ptr, ptr, ptr, i32, i32, i32, i32, ptr, ptr, [6 x ptr] }
%struct._zend_op = type { ptr, %union._znode_op, %union._znode_op, %union._znode_op, i32, i32, i8, i8, i8, i8 }
%union._znode_op = type { i32 }
%struct._zend_array = type { %struct._zend_refcounted_h, %union.anon.4, i32, %union.anon.6, i32, i32, i32, i32, i64, ptr }
%struct._zend_refcounted_h = type { i32, %union.anon.3 }
%union.anon.3 = type { i32 }
%union.anon.4 = type { i32 }
%union.anon.6 = type { ptr }
%struct.zend_get_gc_buffer = type { ptr, ptr, ptr }
%struct._zend_call_stack = type { ptr, i64 }
%struct._zend_execute_data = type { ptr, ptr, ptr, ptr, %struct._zval_struct, ptr, ptr, ptr, ptr }
%struct._xmlURI = type { ptr, ptr, ptr, ptr, ptr, i32, ptr, ptr, ptr, i32, ptr }

@executor_globals = external global %struct._zend_executor_globals, align 8
@.str.1 = private unnamed_addr constant [5 x i8] c"s|ss\00", align 1
@.str.2 = private unnamed_addr constant [16 x i8] c"cannot be empty\00", align 1
@.str.3 = private unnamed_addr constant [4 x i8] c"%00\00", align 1
@.str.4 = private unnamed_addr constant [47 x i8] c"URI must not contain percent-encoded NUL bytes\00", align 1
@xmlFree = external global ptr, align 8
@.str.5 = private unnamed_addr constant [30 x i8] c"Unable to create DocumentType\00", align 1

; Function Attrs: nounwind uwtable
define hidden void @zim_DOMImplementation_createDocumentType(ptr noundef %0, ptr noundef %1) #0 {
  %3 = alloca ptr, align 8
  %4 = alloca ptr, align 8
  %5 = alloca ptr, align 8
  %6 = alloca i32, align 4
  %7 = alloca i64, align 8
  %8 = alloca i64, align 8
  %9 = alloca i64, align 8
  %10 = alloca ptr, align 8
  %11 = alloca ptr, align 8
  %12 = alloca ptr, align 8
  %13 = alloca ptr, align 8
  %14 = alloca ptr, align 8
  %15 = alloca ptr, align 8
  %16 = alloca ptr, align 8
  store ptr %0, ptr %3, align 8
  store ptr %1, ptr %4, align 8
  store i64 0, ptr %7, align 8
  store i64 0, ptr %8, align 8
  store i64 0, ptr %9, align 8
  store ptr null, ptr %10, align 8
  store ptr null, ptr %11, align 8
  store ptr null, ptr %12, align 8
  store ptr null, ptr %13, align 8
  store ptr null, ptr %14, align 8
  store ptr null, ptr %15, align 8
  %17 = load ptr, ptr %3, align 8
  %18 = getelementptr inbounds %struct._zend_execute_data, ptr %17, i32 0, i32 4
  %19 = getelementptr inbounds %struct._zval_struct, ptr %18, i32 0, i32 2
  %20 = load i32, ptr %19, align 4
  %21 = call i32 (i32, ptr, ...) @zend_parse_parameters(i32 noundef %20, ptr noundef @.str.1, ptr noundef %10, ptr noundef %7, ptr noundef %11, ptr noundef %8, ptr noundef %12, ptr noundef %9)
  %22 = icmp eq i32 %21, -1
  br i1 %22, label %23, label %28

23:                                               ; preds = %2
  br label %24

24:                                               ; preds = %23
  %25 = load ptr, ptr getelementptr inbounds (%struct._zend_executor_globals, ptr @executor_globals, i32 0, i32 50), align 8
  %26 = icmp ne ptr %25, null
  call void @llvm.assume(i1 %26)
  br label %115

27:                                               ; No predecessors!
  br label %28

28:                                               ; preds = %27, %2
  %29 = load i64, ptr %7, align 8
  %30 = icmp eq i64 %29, 0
  br i1 %30, label %31, label %36

31:                                               ; preds = %28
  call void (i32, ptr, ...) @zend_argument_value_error(i32 noundef 1, ptr noundef @.str.2)
  br label %32

32:                                               ; preds = %31
  %33 = load ptr, ptr getelementptr inbounds (%struct._zend_executor_globals, ptr @executor_globals, i32 0, i32 50), align 8
  %34 = icmp ne ptr %33, null
  call void @llvm.assume(i1 %34)
  br label %115

35:                                               ; No predecessors!
  br label %36

36:                                               ; preds = %35, %28
  %37 = load i64, ptr %8, align 8
  %38 = icmp ugt i64 %37, 0
  br i1 %38, label %39, label %41

39:                                               ; preds = %36
  %40 = load ptr, ptr %11, align 8
  store ptr %40, ptr %13, align 8
  br label %41

41:                                               ; preds = %39, %36
  %42 = load i64, ptr %9, align 8
  %43 = icmp ugt i64 %42, 0
  br i1 %43, label %44, label %46

44:                                               ; preds = %41
  %45 = load ptr, ptr %12, align 8
  store ptr %45, ptr %14, align 8
  br label %46

46:                                               ; preds = %44, %41
  %47 = load ptr, ptr %10, align 8
  %48 = call ptr @strstr(ptr noundef %47, ptr noundef @.str.3) #4
  %49 = icmp ne ptr %48, null
  br i1 %49, label %50, label %57

50:                                               ; preds = %46
  call void (ptr, i32, ptr, ...) @php_error_docref(ptr noundef null, i32 noundef 2, ptr noundef @.str.4)
  br label %51

51:                                               ; preds = %50
  br label %52

52:                                               ; preds = %51
  %53 = load ptr, ptr %4, align 8
  %54 = getelementptr inbounds %struct._zval_struct, ptr %53, i32 0, i32 1
  store i32 2, ptr %54, align 8
  br label %55

55:                                               ; preds = %52
  br label %115

56:                                               ; No predecessors!
  br label %57

57:                                               ; preds = %56, %46
  %58 = load ptr, ptr %10, align 8
  %59 = call ptr @xmlParseURI(ptr noundef %58)
  store ptr %59, ptr %16, align 8
  %60 = load ptr, ptr %16, align 8
  %61 = icmp ne ptr %60, null
  br i1 %61, label %62, label %86

62:                                               ; preds = %57
  %63 = load ptr, ptr %16, align 8
  %64 = getelementptr inbounds %struct._xmlURI, ptr %63, i32 0, i32 1
  %65 = load ptr, ptr %64, align 8
  %66 = icmp ne ptr %65, null
  br i1 %66, label %67, label %86

67:                                               ; preds = %62
  %68 = load ptr, ptr %16, align 8
  %69 = getelementptr inbounds %struct._xmlURI, ptr %68, i32 0, i32 1
  %70 = load ptr, ptr %69, align 8
  %71 = call ptr @xmlStrdup(ptr noundef %70)
  store ptr %71, ptr %15, align 8
  %72 = load ptr, ptr %15, align 8
  %73 = call ptr @xmlStrchr(ptr noundef %72, i8 noundef zeroext 58)
  %74 = icmp ne ptr %73, null
  br i1 %74, label %75, label %85

75:                                               ; preds = %67
  call void @php_dom_throw_error(i32 noundef 14, i32 noundef 1)
  %76 = load ptr, ptr %16, align 8
  call void @xmlFreeURI(ptr noundef %76)
  %77 = load ptr, ptr @xmlFree, align 8
  %78 = load ptr, ptr %15, align 8
  call void %77(ptr noundef %78)
  br label %79

79:                                               ; preds = %75
  br label %80

80:                                               ; preds = %79
  %81 = load ptr, ptr %4, align 8
  %82 = getelementptr inbounds %struct._zval_struct, ptr %81, i32 0, i32 1
  store i32 2, ptr %82, align 8
  br label %83

83:                                               ; preds = %80
  br label %115

84:                                               ; No predecessors!
  br label %85

85:                                               ; preds = %84, %67
  br label %89

86:                                               ; preds = %62, %57
  %87 = load ptr, ptr %10, align 8
  %88 = call ptr @xmlStrdup(ptr noundef %87)
  store ptr %88, ptr %15, align 8
  br label %89

89:                                               ; preds = %86, %85
  %90 = load ptr, ptr %16, align 8
  %91 = icmp ne ptr %90, null
  br i1 %91, label %92, label %94

92:                                               ; preds = %89
  %93 = load ptr, ptr %16, align 8
  call void @xmlFreeURI(ptr noundef %93)
  br label %94

94:                                               ; preds = %92, %89
  %95 = load ptr, ptr %15, align 8
  %96 = load ptr, ptr %13, align 8
  %97 = load ptr, ptr %14, align 8
  %98 = call ptr @xmlCreateIntSubset(ptr noundef null, ptr noundef %95, ptr noundef %96, ptr noundef %97)
  store ptr %98, ptr %5, align 8
  %99 = load ptr, ptr @xmlFree, align 8
  %100 = load ptr, ptr %15, align 8
  call void %99(ptr noundef %100)
  %101 = load ptr, ptr %5, align 8
  %102 = icmp eq ptr %101, null
  br i1 %102, label %103, label %110

103:                                              ; preds = %94
  call void (ptr, i32, ptr, ...) @php_error_docref(ptr noundef null, i32 noundef 2, ptr noundef @.str.5)
  br label %104

104:                                              ; preds = %103
  br label %105

105:                                              ; preds = %104
  %106 = load ptr, ptr %4, align 8
  %107 = getelementptr inbounds %struct._zval_struct, ptr %106, i32 0, i32 1
  store i32 2, ptr %107, align 8
  br label %108

108:                                              ; preds = %105
  br label %115

109:                                              ; No predecessors!
  br label %110

110:                                              ; preds = %109, %94
  %111 = load ptr, ptr %5, align 8
  %112 = load ptr, ptr %4, align 8
  %113 = call zeroext i1 @php_dom_create_object(ptr noundef %111, ptr noundef %112, ptr noundef null)
  %114 = zext i1 %113 to i32
  store i32 %114, ptr %6, align 4
  br label %115

115:                                              ; preds = %110, %108, %83, %55, %32, %24
  ret void
}