; Function Attrs: nounwind uwtable
define hidden void @zim_DOMImplementation_createDocumentType(ptr nocapture noundef readonly %0, ptr noundef %1) local_unnamed_addr #0 {
  %3 = alloca i64, align 8
  %4 = alloca i64, align 8
  %5 = alloca i64, align 8
  %6 = alloca ptr, align 8
  %7 = alloca ptr, align 8
  %8 = alloca ptr, align 8
  store i64 0, ptr %3, align 8
  store i64 0, ptr %4, align 8
  store i64 0, ptr %5, align 8
  store ptr null, ptr %6, align 8
  store ptr null, ptr %7, align 8
  store ptr null, ptr %8, align 8
  %9 = getelementptr inbounds i8, ptr %0, i64 44
  %10 = load i32, ptr %9, align 4
  %11 = call i32 (i32, ptr, ...) @zend_parse_parameters(i32 noundef %10, ptr noundef nonnull @.str.1, ptr noundef nonnull %6, ptr noundef nonnull %3, ptr noundef nonnull %7, ptr noundef nonnull %4, ptr noundef nonnull %8, ptr noundef nonnull %5) #5
  %12 = icmp eq i32 %11, -1
  br i1 %12, label %13, label %16

13:                                               ; preds = %2
  %14 = load ptr, ptr getelementptr inbounds (%struct._zend_executor_globals, ptr @executor_globals, i64 0, i32 50), align 8
  %15 = icmp ne ptr %14, null
  call void @llvm.assume(i1 %15)
  br label %55

16:                                               ; preds = %2
  %17 = load i64, ptr %3, align 8
  %18 = icmp eq i64 %17, 0
  br i1 %18, label %19, label %22

19:                                               ; preds = %16
  call void (i32, ptr, ...) @zend_argument_value_error(i32 noundef 1, ptr noundef nonnull @.str.2) #5
  %20 = load ptr, ptr getelementptr inbounds (%struct._zend_executor_globals, ptr @executor_globals, i64 0, i32 50), align 8
  %21 = icmp ne ptr %20, null
  call void @llvm.assume(i1 %21)
  br label %55

22:                                               ; preds = %16
  %23 = load i64, ptr %4, align 8
  %.not = icmp eq i64 %23, 0
  %24 = load ptr, ptr %7, align 8
  %spec.select = select i1 %.not, ptr null, ptr %24
  %25 = load i64, ptr %5, align 8
  %.not24 = icmp eq i64 %25, 0
  %26 = load ptr, ptr %8, align 8
  %.020 = select i1 %.not24, ptr null, ptr %26
  %27 = load ptr, ptr %6, align 8
  %28 = call ptr @strstr(ptr noundef nonnull dereferenceable(1) %27, ptr noundef nonnull dereferenceable(1) @.str.3) #6
  %.not25 = icmp eq ptr %28, null
  br i1 %.not25, label %31, label %29

29:                                               ; preds = %22
  call void (ptr, i32, ptr, ...) @php_error_docref(ptr noundef null, i32 noundef 2, ptr noundef nonnull @.str.4) #5
  %30 = getelementptr inbounds i8, ptr %1, i64 8
  store i32 2, ptr %30, align 8
  br label %55

31:                                               ; preds = %22
  %32 = call ptr @xmlParseURI(ptr noundef %27) #5
  %.not26 = icmp eq ptr %32, null
  br i1 %.not26, label %.thread32, label %35

.thread32:                                        ; preds = %31
  %33 = load ptr, ptr %6, align 8
  %34 = call ptr @xmlStrdup(ptr noundef %33) #5
  br label %47

35:                                               ; preds = %31
  %36 = getelementptr inbounds i8, ptr %32, i64 8
  %37 = load ptr, ptr %36, align 8
  %.not27 = icmp eq ptr %37, null
  br i1 %.not27, label %44, label %38

38:                                               ; preds = %35
  %39 = call ptr @xmlStrdup(ptr noundef nonnull %37) #5
  %40 = call ptr @xmlStrchr(ptr noundef %39, i8 noundef zeroext 58) #5
  %.not28 = icmp eq ptr %40, null
  br i1 %.not28, label %.thread, label %41

41:                                               ; preds = %38
  call void @php_dom_throw_error(i32 noundef 14, i32 noundef 1) #5
  call void @xmlFreeURI(ptr noundef nonnull %32) #5
  %42 = load ptr, ptr @xmlFree, align 8
  call void %42(ptr noundef %39) #5
  %43 = getelementptr inbounds i8, ptr %1, i64 8
  store i32 2, ptr %43, align 8
  br label %55

44:                                               ; preds = %35
  %45 = load ptr, ptr %6, align 8
  %46 = call ptr @xmlStrdup(ptr noundef %45) #5
  br label %.thread

.thread:                                          ; preds = %38, %44
  %.01930 = phi ptr [ %46, %44 ], [ %39, %38 ]
  call void @xmlFreeURI(ptr noundef nonnull %32) #5
  br label %47

47:                                               ; preds = %.thread32, %.thread
  %.01931 = phi ptr [ %.01930, %.thread ], [ %34, %.thread32 ]
  %48 = call ptr @xmlCreateIntSubset(ptr noundef null, ptr noundef %.01931, ptr noundef %spec.select, ptr noundef %.020) #5
  %49 = load ptr, ptr @xmlFree, align 8
  call void %49(ptr noundef %.01931) #5
  %50 = icmp eq ptr %48, null
  br i1 %50, label %51, label %53

51:                                               ; preds = %47
  call void (ptr, i32, ptr, ...) @php_error_docref(ptr noundef null, i32 noundef 2, ptr noundef nonnull @.str.5) #5
  %52 = getelementptr inbounds i8, ptr %1, i64 8
  store i32 2, ptr %52, align 8
  br label %55

53:                                               ; preds = %47
  %54 = call zeroext i1 @php_dom_create_object(ptr noundef nonnull %48, ptr noundef %1, ptr noundef null) #5
  br label %55

55:                                               ; preds = %53, %51, %41, %29, %19, %13
  ret void
}